target datalayout = "e-m:e-p270:32:32-p271:32:32-p272:64:64-i64:64-i128:128-f80:128-n8:16:32:64-S128"
target triple = "x86_64-pc-linux-gnu"

%struct.rb_data_type_struct = type { ptr, %struct.anon, ptr, ptr, i64 }
%struct.anon = type { ptr, ptr, ptr, ptr, [1 x ptr] }

@eEC_GROUP = internal global i64 0, align 8
@eEC_POINT = internal global i64 0, align 8
@id_i_group = internal global i64 0, align 8
@ossl_ec_group_type = internal constant %struct.rb_data_type_struct { ptr @.str.61, %struct.anon { ptr null, ptr @ossl_ec_group_free, ptr null, ptr null, [1 x ptr] zeroinitializer }, ptr null, ptr null, i64 33 }, align 8
@.str.59 = private unnamed_addr constant [28 x i8] c"EC_GROUP is not initialized\00", align 1
@ossl_ec_point_type = internal constant %struct.rb_data_type_struct { ptr @.str.87, %struct.anon { ptr null, ptr @ossl_ec_point_free, ptr null, ptr null, [1 x ptr] zeroinitializer }, ptr null, ptr null, i64 33 }, align 8
@.str.85 = private unnamed_addr constant [28 x i8] c"EC_POINT is not initialized\00", align 1
@.str.105 = private unnamed_addr constant [52 x i8] c"OpenSSL::PKey::EC::Point#make_affine! is deprecated\00", align 1

; Function Attrs: nounwind sspstrong uwtable
define internal i64 @ossl_ec_point_make_affine(i64 noundef %0) #0 {
  %2 = alloca i64, align 8
  %3 = alloca ptr, align 8
  %4 = alloca ptr, align 8
  %5 = alloca i64, align 8
  store i64 %0, ptr %2, align 8, !tbaa !6
  call void @llvm.lifetime.start.p0(i64 8, ptr %3) #19
  call void @llvm.lifetime.start.p0(i64 8, ptr %4) #19
  br label %6

6:                                                ; preds = %1
  %7 = load i64, ptr %2, align 8, !tbaa !6
  %8 = call ptr @rb_check_typeddata(i64 noundef %7, ptr noundef @ossl_ec_point_type)
  store ptr %8, ptr %3, align 8, !tbaa !37
  %9 = load ptr, ptr %3, align 8, !tbaa !37
  %10 = icmp eq ptr %9, null
  br i1 %10, label %11, label %13

11:                                               ; preds = %6
  %12 = load i64, ptr @eEC_POINT, align 8, !tbaa !6
  call void (i64, ptr, ...) @ossl_raise(i64 noundef %12, ptr noundef @.str.85) #20
  unreachable

13:                                               ; preds = %6
  br label %14

14:                                               ; preds = %13
  br label %15

15:                                               ; preds = %14
  br label %16

16:                                               ; preds = %15
  call void @llvm.lifetime.start.p0(i64 8, ptr %5) #19
  %17 = load i64, ptr %2, align 8, !tbaa !6
  %18 = load i64, ptr @id_i_group, align 8, !tbaa !6
  %19 = call i64 @rb_attr_get(i64 noundef %17, i64 noundef %18)
  store i64 %19, ptr %5, align 8, !tbaa !6
  br label %20

20:                                               ; preds = %16
  %21 = load i64, ptr %5, align 8, !tbaa !6
  %22 = call ptr @rb_check_typeddata(i64 noundef %21, ptr noundef @ossl_ec_group_type)
  store ptr %22, ptr %4, align 8, !tbaa !33
  %23 = load ptr, ptr %4, align 8, !tbaa !33
  %24 = icmp eq ptr %23, null
  br i1 %24, label %25, label %27

25:                                               ; preds = %20
  %26 = load i64, ptr @eEC_GROUP, align 8, !tbaa !6
  call void (i64, ptr, ...) @ossl_raise(i64 noundef %26, ptr noundef @.str.59) #20
  unreachable

27:                                               ; preds = %20
  br label %28

28:                                               ; preds = %27
  br label %29

29:                                               ; preds = %28
  call void @llvm.lifetime.end.p0(i64 8, ptr %5) #19
  br label %30

30:                                               ; preds = %29
  br label %31

31:                                               ; preds = %30
  call void (ptr, ...) @rb_warn(ptr noundef @.str.105) #22
  %32 = load i64, ptr %2, align 8, !tbaa !6
  call void @llvm.lifetime.end.p0(i64 8, ptr %4) #19
  call void @llvm.lifetime.end.p0(i64 8, ptr %3) #19
  ret i64 %32
}